; Function Attrs: nounwind uwtable
define hidden range(i32 0, 12) i32 @Curl_multi_add_perform(ptr noundef %0, ptr noundef %1, ptr noundef %2) local_unnamed_addr #0 {
  %4 = getelementptr inbounds nuw i8, ptr %0, i64 649
  %5 = load i8, ptr %4, align 1
  %6 = and i8 %5, 4
  %.not = icmp eq i8 %6, 0
  br i1 %.not, label %7, label %27

7:                                                ; preds = %3
  %8 = tail call i32 @curl_multi_add_handle(ptr noundef nonnull %0, ptr noundef %1)
  %.not11 = icmp eq i32 %8, 0
  br i1 %.not11, label %9, label %27

9:                                                ; preds = %7
  %10 = tail call i32 @Curl_init_do(ptr noundef %1, ptr noundef null) #19
  %11 = getelementptr inbounds nuw i8, ptr %1, i64 96
  %12 = load i32, ptr %11, align 8, !tbaa !98
  %13 = icmp eq i32 %12, 13
  br i1 %13, label %mstate.exit, label %14

14:                                               ; preds = %9
  store i32 13, ptr %11, align 8, !tbaa !98
  br label %mstate.exit

mstate.exit:                                      ; preds = %9, %14
  %15 = getelementptr inbounds nuw i8, ptr %1, i64 24
  store ptr %2, ptr %15, align 8, !tbaa !109
  %16 = getelementptr inbounds nuw i8, ptr %2, i64 1000
  %17 = getelementptr inbounds nuw i8, ptr %1, i64 64
  tail call void @Curl_llist_append(ptr noundef nonnull %16, ptr noundef nonnull %1, ptr noundef nonnull %17) #19
  %18 = getelementptr inbounds nuw i8, ptr %2, i64 960
  %19 = load ptr, ptr %18, align 8, !tbaa !124
  %.not.i = icmp eq ptr %19, null
  br i1 %.not.i, label %Curl_attach_connection.exit, label %20

20:                                               ; preds = %mstate.exit
  %21 = getelementptr inbounds nuw i8, ptr %19, i64 128
  %22 = load ptr, ptr %21, align 8, !tbaa !142
  %.not11.i = icmp eq ptr %22, null
  br i1 %.not11.i, label %Curl_attach_connection.exit, label %23

23:                                               ; preds = %20
  tail call void %22(ptr noundef nonnull %1, ptr noundef nonnull %2) #19
  br label %Curl_attach_connection.exit

Curl_attach_connection.exit:                      ; preds = %mstate.exit, %20, %23
  %24 = getelementptr inbounds nuw i8, ptr %1, i64 316
  %25 = load i32, ptr %24, align 4, !tbaa !164
  %26 = or i32 %25, 1
  store i32 %26, ptr %24, align 4, !tbaa !164
  br label %27

27:                                               ; preds = %7, %Curl_attach_connection.exit, %3
  %.0 = phi i32 [ 8, %3 ], [ 0, %Curl_attach_connection.exit ], [ %8, %7 ]
  ret i32 %.0
}